target datalayout = "e-m:e-p270:32:32-p271:32:32-p272:64:64-i64:64-i128:128-f80:128-n8:16:32:64-S128"
target triple = "x86_64-pc-linux-gnu"

%struct.config_generic = type { ptr, i32, i32, ptr, ptr, i32, i32, i32, i32, i32, i32, i32, i32, i32, ptr, ptr, %struct.dlist_node, %struct.slist_node, %struct.slist_node, ptr, ptr, i32 }
%struct.dlist_node = type { ptr, ptr }
%struct.slist_node = type { ptr }
%struct.slist_head = type { %struct.slist_node }
%struct.slist_mutable_iter = type { ptr, ptr, ptr }

@reporting_enabled = internal global i8 0, align 1
@guc_report_list = internal global %struct.slist_head zeroinitializer, align 8
@.str.41 = private unnamed_addr constant [15 x i8] c"in_hot_standby\00", align 1
@in_hot_standby_guc = external global i8, align 1
@.str.43 = private unnamed_addr constant [6 x i8] c"false\00", align 1

; Function Attrs: nounwind uwtable
define dso_local i32 @set_config_option(ptr noundef %0, ptr noundef %1, i32 noundef %2, i32 noundef %3, i32 noundef %4, i1 noundef zeroext %5, i32 noundef %6, i1 noundef zeroext %7) #0 {
  %9 = alloca ptr, align 8
  %10 = alloca ptr, align 8
  %11 = alloca i32, align 4
  %12 = alloca i32, align 4
  %13 = alloca i32, align 4
  %14 = alloca i8, align 1
  %15 = alloca i32, align 4
  %16 = alloca i8, align 1
  %17 = alloca i32, align 4
  store ptr %0, ptr %9, align 8
  store ptr %1, ptr %10, align 8
  store i32 %2, ptr %11, align 4
  store i32 %3, ptr %12, align 4
  store i32 %4, ptr %13, align 4
  %18 = zext i1 %5 to i8
  store i8 %18, ptr %14, align 1
  store i32 %6, ptr %15, align 4
  %19 = zext i1 %7 to i8
  store i8 %19, ptr %16, align 1
  call void @llvm.lifetime.start.p0(i64 4, ptr %17) #16
  %20 = load i32, ptr %12, align 4
  %21 = icmp uge i32 %20, 11
  br i1 %21, label %25, label %22

22:                                               ; preds = %8
  %23 = load i32, ptr %12, align 4
  %24 = icmp eq i32 %23, 9
  br i1 %24, label %25, label %27

25:                                               ; preds = %22, %8
  %26 = call i32 @GetUserId()
  store i32 %26, ptr %17, align 4
  br label %28

27:                                               ; preds = %22
  store i32 10, ptr %17, align 4
  br label %28

28:                                               ; preds = %27, %25
  %29 = load ptr, ptr %9, align 8
  %30 = load ptr, ptr %10, align 8
  %31 = load i32, ptr %11, align 4
  %32 = load i32, ptr %12, align 4
  %33 = load i32, ptr %17, align 4
  %34 = load i32, ptr %13, align 4
  %35 = load i8, ptr %14, align 1, !range !4, !noundef !5
  %36 = trunc i8 %35 to i1
  %37 = load i32, ptr %15, align 4
  %38 = load i8, ptr %16, align 1, !range !4, !noundef !5
  %39 = trunc i8 %38 to i1
  %40 = call i32 @set_config_with_handle(ptr noundef %29, ptr noundef null, ptr noundef %30, i32 noundef %31, i32 noundef %32, i32 noundef %33, i32 noundef %34, i1 noundef zeroext %36, i32 noundef %37, i1 noundef zeroext %39)
  call void @llvm.lifetime.end.p0(i64 4, ptr %17) #16
  ret i32 %40
}

; Function Attrs: inlinehint nounwind uwtable
define internal void @slist_delete_current(ptr noundef %0) #10 {
  %2 = alloca ptr, align 8
  store ptr %0, ptr %2, align 8
  %3 = load ptr, ptr %2, align 8
  %4 = getelementptr inbounds nuw %struct.slist_mutable_iter, ptr %3, i32 0, i32 1
  %5 = load ptr, ptr %4, align 8
  %6 = load ptr, ptr %2, align 8
  %7 = getelementptr inbounds nuw %struct.slist_mutable_iter, ptr %6, i32 0, i32 2
  %8 = load ptr, ptr %7, align 8
  %9 = getelementptr inbounds nuw %struct.slist_node, ptr %8, i32 0, i32 0
  store ptr %5, ptr %9, align 8
  %10 = load ptr, ptr %2, align 8
  %11 = getelementptr inbounds nuw %struct.slist_mutable_iter, ptr %10, i32 0, i32 2
  %12 = load ptr, ptr %11, align 8
  %13 = load ptr, ptr %2, align 8
  %14 = getelementptr inbounds nuw %struct.slist_mutable_iter, ptr %13, i32 0, i32 0
  store ptr %12, ptr %14, align 8
  ret void
}

; Function Attrs: nounwind uwtable
define dso_local void @SetConfigOption(ptr noundef %0, ptr noundef %1, i32 noundef %2, i32 noundef %3) #0 {
  %5 = alloca ptr, align 8
  %6 = alloca ptr, align 8
  %7 = alloca i32, align 4
  %8 = alloca i32, align 4
  store ptr %0, ptr %5, align 8
  store ptr %1, ptr %6, align 8
  store i32 %2, ptr %7, align 4
  store i32 %3, ptr %8, align 4
  %9 = load ptr, ptr %5, align 8
  %10 = load ptr, ptr %6, align 8
  %11 = load i32, ptr %7, align 4
  %12 = load i32, ptr %8, align 4
  %13 = call i32 @set_config_option(ptr noundef %9, ptr noundef %10, i32 noundef %11, i32 noundef %12, i32 noundef 0, i1 noundef zeroext true, i32 noundef 0, i1 noundef zeroext false)
  ret void
}

; Function Attrs: nounwind uwtable
define dso_local void @ReportChangedGUCOptions() #0 {
  %1 = alloca %struct.slist_mutable_iter, align 8
  %2 = alloca i32, align 4
  %3 = alloca i32, align 4
  %4 = alloca i32, align 4
  %5 = alloca ptr, align 8
  %6 = alloca i32, align 4
  %7 = alloca i32, align 4
  call void @llvm.lifetime.start.p0(i64 24, ptr %1) #16
  %8 = load i8, ptr @reporting_enabled, align 1, !range !4, !noundef !5
  %9 = trunc i8 %8 to i1
  br i1 %9, label %11, label %10

10:                                               ; preds = %0
  store i32 1, ptr %2, align 4
  br label %81

11:                                               ; preds = %0
  %12 = load i8, ptr @in_hot_standby_guc, align 1, !range !4, !noundef !5
  %13 = trunc i8 %12 to i1
  br i1 %13, label %14, label %17

14:                                               ; preds = %11
  %15 = call zeroext i1 @RecoveryInProgress()
  br i1 %15, label %17, label %16

16:                                               ; preds = %14
  call void @SetConfigOption(ptr noundef @.str.41, ptr noundef @.str.43, i32 noundef 0, i32 noundef 10)
  br label %17

17:                                               ; preds = %16, %14, %11
  br label %18

18:                                               ; preds = %17
  br label %19

19:                                               ; preds = %18
  br label %20

20:                                               ; preds = %19
  store i32 1, ptr %3, align 4
  br label %21

21:                                               ; preds = %20
  br label %22

22:                                               ; preds = %21
  br label %23

23:                                               ; preds = %22
  store i32 1, ptr %4, align 4
  %24 = getelementptr inbounds nuw %struct.slist_mutable_iter, ptr %1, i32 0, i32 2
  store ptr @guc_report_list, ptr %24, align 8
  %25 = getelementptr inbounds nuw %struct.slist_mutable_iter, ptr %1, i32 0, i32 2
  %26 = load ptr, ptr %25, align 8
  %27 = getelementptr inbounds nuw %struct.slist_node, ptr %26, i32 0, i32 0
  %28 = load ptr, ptr %27, align 8
  %29 = getelementptr inbounds nuw %struct.slist_mutable_iter, ptr %1, i32 0, i32 0
  store ptr %28, ptr %29, align 8
  %30 = getelementptr inbounds nuw %struct.slist_mutable_iter, ptr %1, i32 0, i32 0
  %31 = load ptr, ptr %30, align 8
  %32 = icmp ne ptr %31, null
  br i1 %32, label %33, label %38

33:                                               ; preds = %23
  %34 = getelementptr inbounds nuw %struct.slist_mutable_iter, ptr %1, i32 0, i32 0
  %35 = load ptr, ptr %34, align 8
  %36 = getelementptr inbounds nuw %struct.slist_node, ptr %35, i32 0, i32 0
  %37 = load ptr, ptr %36, align 8
  br label %39

38:                                               ; preds = %23
  br label %39

39:                                               ; preds = %38, %33
  %40 = phi ptr [ %37, %33 ], [ null, %38 ]
  %41 = getelementptr inbounds nuw %struct.slist_mutable_iter, ptr %1, i32 0, i32 1
  store ptr %40, ptr %41, align 8
  br label %42

42:                                               ; preds = %77, %39
  %43 = getelementptr inbounds nuw %struct.slist_mutable_iter, ptr %1, i32 0, i32 0
  %44 = load ptr, ptr %43, align 8
  %45 = icmp ne ptr %44, null
  br i1 %45, label %46, label %80

46:                                               ; preds = %42
  call void @llvm.lifetime.start.p0(i64 8, ptr %5) #16
  br label %47

47:                                               ; preds = %46
  br label %48

48:                                               ; preds = %47
  br label %49

49:                                               ; preds = %48
  store i32 1, ptr %6, align 4
  br label %50

50:                                               ; preds = %49
  br label %51

51:                                               ; preds = %50
  br label %52

52:                                               ; preds = %51
  store i32 1, ptr %7, align 4
  %53 = getelementptr inbounds nuw %struct.slist_mutable_iter, ptr %1, i32 0, i32 0
  %54 = load ptr, ptr %53, align 8
  %55 = getelementptr inbounds i8, ptr %54, i64 -112
  store ptr %55, ptr %5, align 8
  %56 = load ptr, ptr %5, align 8
  call void @ReportGUCOption(ptr noundef %56)
  %57 = load ptr, ptr %5, align 8
  %58 = getelementptr inbounds nuw %struct.config_generic, ptr %57, i32 0, i32 7
  %59 = load i32, ptr %58, align 8
  %60 = and i32 %59, -5
  store i32 %60, ptr %58, align 8
  call void @slist_delete_current(ptr noundef %1)
  call void @llvm.lifetime.end.p0(i64 8, ptr %5) #16
  br label %61

61:                                               ; preds = %52
  %62 = getelementptr inbounds nuw %struct.slist_mutable_iter, ptr %1, i32 0, i32 0
  %63 = load ptr, ptr %62, align 8
  %64 = getelementptr inbounds nuw %struct.slist_mutable_iter, ptr %1, i32 0, i32 2
  store ptr %63, ptr %64, align 8
  %65 = getelementptr inbounds nuw %struct.slist_mutable_iter, ptr %1, i32 0, i32 1
  %66 = load ptr, ptr %65, align 8
  %67 = getelementptr inbounds nuw %struct.slist_mutable_iter, ptr %1, i32 0, i32 0
  store ptr %66, ptr %67, align 8
  %68 = getelementptr inbounds nuw %struct.slist_mutable_iter, ptr %1, i32 0, i32 1
  %69 = load ptr, ptr %68, align 8
  %70 = icmp ne ptr %69, null
  br i1 %70, label %71, label %76

71:                                               ; preds = %61
  %72 = getelementptr inbounds nuw %struct.slist_mutable_iter, ptr %1, i32 0, i32 1
  %73 = load ptr, ptr %72, align 8
  %74 = getelementptr inbounds nuw %struct.slist_node, ptr %73, i32 0, i32 0
  %75 = load ptr, ptr %74, align 8
  br label %77

76:                                               ; preds = %61
  br label %77

77:                                               ; preds = %76, %71
  %78 = phi ptr [ %75, %71 ], [ null, %76 ]
  %79 = getelementptr inbounds nuw %struct.slist_mutable_iter, ptr %1, i32 0, i32 1
  store ptr %78, ptr %79, align 8
  br label %42, !llvm.loop !37

80:                                               ; preds = %42
  store i32 0, ptr %2, align 4
  br label %81

81:                                               ; preds = %80, %10
  call void @llvm.lifetime.end.p0(i64 24, ptr %1) #16
  %82 = load i32, ptr %2, align 4
  switch i32 %82, label %84 [
    i32 0, label %83
    i32 1, label %83
  ]

83:                                               ; preds = %81, %81
  ret void

84:                                               ; preds = %81
  unreachable
}