; Function Attrs: nounwind uwtable
define dso_local void @ReportChangedGUCOptions() local_unnamed_addr #0 {
  %.b4 = load i1, ptr @reporting_enabled, align 1
  br i1 %.b4, label %1, label %.loopexit

1:                                                ; preds = %0
  %2 = load i8, ptr @in_hot_standby_guc, align 1, !range !4, !noundef !5
  %3 = trunc nuw i8 %2 to i1
  br i1 %3, label %4, label %8

4:                                                ; preds = %1
  %5 = tail call zeroext i1 @RecoveryInProgress() #29
  br i1 %5, label %8, label %6

6:                                                ; preds = %4
  %7 = tail call range(i32 -1, 2) i32 @set_config_with_handle(ptr noundef nonnull @.str.41, ptr noundef null, ptr noundef nonnull @.str.43, i32 noundef 0, i32 noundef 10, i32 noundef 10, i32 noundef 0, i1 noundef zeroext true, i32 noundef 0, i1 noundef zeroext false)
  br label %8

8:                                                ; preds = %1, %4, %6
  %9 = load ptr, ptr @guc_report_list, align 8
  %.not = icmp eq ptr %9, null
  br i1 %.not, label %.loopexit, label %.lr.ph

.lr.ph:                                           ; preds = %8, %.lr.ph
  %storemerge12.sink = phi ptr [ %10, %.lr.ph ], [ %9, %8 ]
  %10 = load ptr, ptr %storemerge12.sink, align 8
  %11 = getelementptr inbounds i8, ptr %storemerge12.sink, i64 -112
  tail call fastcc void @ReportGUCOption(ptr noundef nonnull %11)
  %12 = getelementptr inbounds i8, ptr %storemerge12.sink, i64 -72
  %13 = load i32, ptr %12, align 8
  %14 = and i32 %13, -5
  store i32 %14, ptr %12, align 8
  store ptr %10, ptr @guc_report_list, align 8
  %.not6 = icmp eq ptr %10, null
  br i1 %.not6, label %.loopexit, label %.lr.ph, !llvm.loop !38

.loopexit:                                        ; preds = %.lr.ph, %8, %0
  ret void
}